target datalayout = "e-m:e-p270:32:32-p271:32:32-p272:64:64-i64:64-i128:128-f80:128-n8:16:32:64-S128"
target triple = "x86_64-pc-linux-gnu"

%struct.darktable_t = type { %struct.dt_codepath_t, i32, i32, ptr, ptr, ptr, ptr, ptr, ptr, ptr, ptr, ptr, ptr, ptr, ptr, ptr, ptr, ptr, ptr, ptr, ptr, ptr, ptr, ptr, ptr, ptr, ptr, ptr, ptr, ptr, [64 x %struct.dt_pthread_mutex_t], %struct.dt_pthread_mutex_t, %struct.dt_pthread_mutex_t, %struct.dt_pthread_mutex_t, %struct.dt_pthread_mutex_t, %struct.dt_pthread_mutex_t, ptr, ptr, ptr, ptr, ptr, ptr, ptr, ptr, ptr, ptr, ptr, ptr, ptr, %struct.dt_lua_state_t, ptr, double, ptr, i32, [47 x i32], i32, i32, ptr, ptr, %struct.dt_sys_resources_t, %struct.dt_backthumb_t, %struct.dt_gimp_t }
%struct.dt_codepath_t = type { i8, [3 x i8] }
%struct.dt_pthread_mutex_t = type { %union.pthread_mutex_t }
%union.pthread_mutex_t = type { %struct.__pthread_mutex_s }
%struct.__pthread_mutex_s = type { i32, i32, i32, i32, i32, i16, i16, %struct.__pthread_internal_list }
%struct.__pthread_internal_list = type { ptr, ptr }
%struct.dt_lua_state_t = type { i32 }
%struct.dt_sys_resources_t = type { i64, i64, ptr, ptr, i32 }
%struct.dt_backthumb_t = type { double, double, i32, i32, i32, i32 }
%struct.dt_gimp_t = type { i32, ptr, ptr, i32, i32 }
%struct.dt_masks_dynbuf_t = type { ptr, [128 x i8], i64, i64 }

@darktable = external global %struct.darktable_t, align 8
@.str.27 = private unnamed_addr constant [63 x i8] c"critical: out of memory for dynbuf '%s' with size request %zu!\00", align 1
@.str.28 = private unnamed_addr constant [54 x i8] c"[masks dynbuf '%s'] grows to size %lu (is %p, was %p)\00", align 1

; Function Attrs: inlinehint nounwind uwtable
define internal ptr @dt_alloc_align_float(i64 noundef %0) #3 {
  %2 = alloca i64, align 8
  store i64 %0, ptr %2, align 8, !tbaa !21
  %3 = load i64, ptr %2, align 8, !tbaa !21
  %4 = mul i64 %3, 4
  %5 = call ptr @dt_alloc_aligned(i64 noundef %4)
  call void @llvm.assume(i1 true) [ "align"(ptr %5, i64 64) ]
  ret ptr %5
}

; Function Attrs: inlinehint nounwind uwtable
define internal i32 @_dt_masks_dynbuf_growto(ptr noundef %0, i64 noundef %1) #3 {
  %3 = alloca i32, align 4
  %4 = alloca ptr, align 8
  %5 = alloca i64, align 8
  %6 = alloca ptr, align 8
  %7 = alloca i32, align 4
  store ptr %0, ptr %4, align 8, !tbaa !206
  store i64 %1, ptr %5, align 8, !tbaa !21
  call void @llvm.lifetime.start.p0(i64 8, ptr %6) #13
  %8 = load i64, ptr %5, align 8, !tbaa !21
  %9 = call ptr @dt_alloc_align_float(i64 noundef %8)
  store ptr %9, ptr %6, align 8, !tbaa !15
  %10 = load ptr, ptr %6, align 8, !tbaa !15
  %11 = icmp ne ptr %10, null
  br i1 %11, label %26, label %12

12:                                               ; preds = %2
  br label %13

13:                                               ; preds = %12
  %14 = load i32, ptr getelementptr inbounds nuw (%struct.darktable_t, ptr @darktable, i32 0, i32 2), align 8, !tbaa !107
  %15 = xor i32 %14, -1
  %16 = and i32 0, %15
  %17 = icmp ne i32 %16, 0
  br i1 %17, label %23, label %18

18:                                               ; preds = %13
  %19 = load ptr, ptr %4, align 8, !tbaa !206
  %20 = getelementptr inbounds nuw %struct.dt_masks_dynbuf_t, ptr %19, i32 0, i32 1
  %21 = getelementptr inbounds [128 x i8], ptr %20, i64 0, i64 0
  %22 = load i64, ptr %5, align 8, !tbaa !21
  call void (ptr, ...) @dt_print_ext(ptr noundef @.str.27, ptr noundef %21, i64 noundef %22)
  br label %23

23:                                               ; preds = %18, %13
  br label %24

24:                                               ; preds = %23
  br label %25

25:                                               ; preds = %24
  store i32 0, ptr %3, align 4
  store i32 1, ptr %7, align 4
  br label %73

26:                                               ; preds = %2
  %27 = load ptr, ptr %4, align 8, !tbaa !206
  %28 = getelementptr inbounds nuw %struct.dt_masks_dynbuf_t, ptr %27, i32 0, i32 0
  %29 = load ptr, ptr %28, align 8, !tbaa !212
  %30 = icmp ne ptr %29, null
  br i1 %30, label %31, label %66

31:                                               ; preds = %26
  %32 = load ptr, ptr %6, align 8, !tbaa !15
  %33 = load ptr, ptr %4, align 8, !tbaa !206
  %34 = getelementptr inbounds nuw %struct.dt_masks_dynbuf_t, ptr %33, i32 0, i32 0
  %35 = load ptr, ptr %34, align 8, !tbaa !212
  %36 = load ptr, ptr %4, align 8, !tbaa !206
  %37 = getelementptr inbounds nuw %struct.dt_masks_dynbuf_t, ptr %36, i32 0, i32 3
  %38 = load i64, ptr %37, align 8, !tbaa !211
  %39 = mul i64 %38, 4
  call void @llvm.memcpy.p0.p0.i64(ptr align 4 %32, ptr align 4 %35, i64 %39, i1 false)
  br label %40

40:                                               ; preds = %31
  %41 = load i32, ptr getelementptr inbounds nuw (%struct.darktable_t, ptr @darktable, i32 0, i32 2), align 8, !tbaa !107
  %42 = and i32 4096, %41
  %43 = icmp ne i32 %42, 0
  br i1 %43, label %44, label %60

44:                                               ; preds = %40
  %45 = load i32, ptr getelementptr inbounds nuw (%struct.darktable_t, ptr @darktable, i32 0, i32 2), align 8, !tbaa !107
  %46 = xor i32 %45, -1
  %47 = and i32 0, %46
  %48 = icmp ne i32 %47, 0
  br i1 %48, label %60, label %49

49:                                               ; preds = %44
  %50 = load ptr, ptr %4, align 8, !tbaa !206
  %51 = getelementptr inbounds nuw %struct.dt_masks_dynbuf_t, ptr %50, i32 0, i32 1
  %52 = getelementptr inbounds [128 x i8], ptr %51, i64 0, i64 0
  %53 = load ptr, ptr %4, align 8, !tbaa !206
  %54 = getelementptr inbounds nuw %struct.dt_masks_dynbuf_t, ptr %53, i32 0, i32 3
  %55 = load i64, ptr %54, align 8, !tbaa !211
  %56 = load ptr, ptr %6, align 8, !tbaa !15
  %57 = load ptr, ptr %4, align 8, !tbaa !206
  %58 = getelementptr inbounds nuw %struct.dt_masks_dynbuf_t, ptr %57, i32 0, i32 0
  %59 = load ptr, ptr %58, align 8, !tbaa !212
  call void (ptr, ...) @dt_print_ext(ptr noundef @.str.28, ptr noundef %52, i64 noundef %55, ptr noundef %56, ptr noundef %59)
  br label %60

60:                                               ; preds = %49, %44, %40
  br label %61

61:                                               ; preds = %60
  br label %62

62:                                               ; preds = %61
  %63 = load ptr, ptr %4, align 8, !tbaa !206
  %64 = getelementptr inbounds nuw %struct.dt_masks_dynbuf_t, ptr %63, i32 0, i32 0
  %65 = load ptr, ptr %64, align 8, !tbaa !212
  call void @free(ptr noundef %65) #13
  br label %66

66:                                               ; preds = %62, %26
  %67 = load i64, ptr %5, align 8, !tbaa !21
  %68 = load ptr, ptr %4, align 8, !tbaa !206
  %69 = getelementptr inbounds nuw %struct.dt_masks_dynbuf_t, ptr %68, i32 0, i32 3
  store i64 %67, ptr %69, align 8, !tbaa !211
  %70 = load ptr, ptr %6, align 8, !tbaa !15
  %71 = load ptr, ptr %4, align 8, !tbaa !206
  %72 = getelementptr inbounds nuw %struct.dt_masks_dynbuf_t, ptr %71, i32 0, i32 0
  store ptr %70, ptr %72, align 8, !tbaa !212
  store i32 1, ptr %3, align 4
  store i32 1, ptr %7, align 4
  br label %73

73:                                               ; preds = %66, %25
  call void @llvm.lifetime.end.p0(i64 8, ptr %6) #13
  %74 = load i32, ptr %3, align 4
  ret i32 %74
}